; Function Attrs: mustprogress uwtable
define internal fastcc void @_ZN10open_spiel8efg_game12_GLOBAL__N_125EFGInformationStateStringEiiiRKNSt7__cxx1112basic_stringIcSt11char_traitsIcESaIcEEE(ptr dead_on_unwind noalias writable align 8 %0, i32 noundef %1, i32 noundef %2, i32 noundef %3, ptr noundef nonnull align 8 dereferenceable(32) %4) unnamed_addr #3 personality ptr @__gxx_personality_v0 {
  %6 = alloca [7 x %"class.absl::debian2::string_view"], align 8
  %7 = alloca %"class.absl::debian2::AlphaNum", align 8
  %8 = alloca %"class.absl::debian2::AlphaNum", align 8
  %9 = alloca %"class.absl::debian2::AlphaNum", align 8
  %10 = getelementptr inbounds nuw i8, ptr %7, i64 16
  %11 = call noundef ptr @_ZN4absl7debian216numbers_internal15FastIntToBufferEiPc(i32 noundef %1, ptr noundef nonnull %10)
  %12 = ptrtoint ptr %11 to i64
  %13 = ptrtoint ptr %10 to i64
  %14 = sub i64 %12, %13
  store ptr %10, ptr %7, align 8
  %15 = icmp sgt i64 %14, -1
  br i1 %15, label %_ZN4absl7debian28AlphaNumC2Ei.exit, label %16

16:                                               ; preds = %5
  call void @llvm.trap()
  unreachable

_ZN4absl7debian28AlphaNumC2Ei.exit:               ; preds = %5
  %17 = getelementptr inbounds nuw i8, ptr %7, i64 8
  store i64 %14, ptr %17, align 8
  %18 = getelementptr inbounds nuw i8, ptr %8, i64 16
  %19 = call noundef ptr @_ZN4absl7debian216numbers_internal15FastIntToBufferEiPc(i32 noundef %2, ptr noundef nonnull %18)
  %20 = ptrtoint ptr %19 to i64
  %21 = ptrtoint ptr %18 to i64
  %22 = sub i64 %20, %21
  store ptr %18, ptr %8, align 8
  %23 = icmp sgt i64 %22, -1
  br i1 %23, label %_ZN4absl7debian28AlphaNumC2EPKc.exit4, label %24

24:                                               ; preds = %_ZN4absl7debian28AlphaNumC2Ei.exit
  call void @llvm.trap()
  unreachable

_ZN4absl7debian28AlphaNumC2EPKc.exit4:            ; preds = %_ZN4absl7debian28AlphaNumC2Ei.exit
  %25 = getelementptr inbounds nuw i8, ptr %8, i64 8
  store i64 %22, ptr %25, align 8
  %26 = getelementptr inbounds nuw i8, ptr %9, i64 16
  %27 = call noundef ptr @_ZN4absl7debian216numbers_internal15FastIntToBufferEiPc(i32 noundef %3, ptr noundef nonnull %26)
  %28 = ptrtoint ptr %27 to i64
  %29 = ptrtoint ptr %26 to i64
  %30 = sub i64 %28, %29
  store ptr %26, ptr %9, align 8
  %31 = icmp sgt i64 %30, -1
  br i1 %31, label %_ZN4absl7debian28AlphaNumC2EPKc.exit.i, label %32

32:                                               ; preds = %_ZN4absl7debian28AlphaNumC2EPKc.exit4
  call void @llvm.trap()
  unreachable

_ZN4absl7debian28AlphaNumC2EPKc.exit.i:           ; preds = %_ZN4absl7debian28AlphaNumC2EPKc.exit4
  %33 = getelementptr inbounds nuw i8, ptr %9, i64 8
  store i64 %30, ptr %33, align 8
  call void @llvm.lifetime.start.p0(i64 112, ptr nonnull %6)
  %.sroa.0.0.copyload.i.i = load ptr, ptr %7, align 8, !noalias !8
  %.sroa.2.0.copyload.i.i = load i64, ptr %17, align 8, !noalias !8
  store ptr %.sroa.0.0.copyload.i.i, ptr %6, align 8, !noalias !8
  %34 = getelementptr inbounds nuw i8, ptr %6, i64 8
  store i64 %.sroa.2.0.copyload.i.i, ptr %34, align 8, !noalias !8
  %35 = getelementptr inbounds nuw i8, ptr %6, i64 16
  store ptr @.str.32, ptr %35, align 8, !noalias !8
  %36 = getelementptr inbounds nuw i8, ptr %6, i64 24
  store i64 1, ptr %36, align 8, !noalias !8
  %37 = getelementptr inbounds nuw i8, ptr %6, i64 32
  %.sroa.0.0.copyload.i12.i = load ptr, ptr %8, align 8, !noalias !8
  %.sroa.2.0.copyload.i14.i = load i64, ptr %25, align 8, !noalias !8
  store ptr %.sroa.0.0.copyload.i12.i, ptr %37, align 8, !noalias !8
  %38 = getelementptr inbounds nuw i8, ptr %6, i64 40
  store i64 %.sroa.2.0.copyload.i14.i, ptr %38, align 8, !noalias !8
  %39 = getelementptr inbounds nuw i8, ptr %6, i64 48
  store ptr @.str.32, ptr %39, align 8, !noalias !8
  %40 = getelementptr inbounds nuw i8, ptr %6, i64 56
  store i64 1, ptr %40, align 8, !noalias !8
  %41 = getelementptr inbounds nuw i8, ptr %6, i64 64
  store ptr %26, ptr %41, align 8, !noalias !8
  %42 = getelementptr inbounds nuw i8, ptr %6, i64 72
  store i64 %30, ptr %42, align 8, !noalias !8
  %43 = getelementptr inbounds nuw i8, ptr %6, i64 80
  store ptr @.str.32, ptr %43, align 8, !noalias !8
  %44 = getelementptr inbounds nuw i8, ptr %6, i64 88
  store i64 1, ptr %44, align 8, !noalias !8
  %45 = call noundef ptr @_ZNKSt7__cxx1112basic_stringIcSt11char_traitsIcESaIcEE4dataEv(ptr noundef nonnull align 8 dereferenceable(32) %4) #29, !noalias !8
  %46 = call noundef i64 @_ZNKSt7__cxx1112basic_stringIcSt11char_traitsIcESaIcEE4sizeEv(ptr noundef nonnull align 8 dereferenceable(32) %4) #29, !noalias !8
  %47 = icmp sgt i64 %46, -1
  br i1 %47, label %_ZN4absl7debian26StrCatIJA2_cNSt7__cxx1112basic_stringIcSt11char_traitsIcESaIcEEEEEES8_RKNS0_8AlphaNumESB_SB_SB_SB_DpRKT_.exit, label %48

48:                                               ; preds = %_ZN4absl7debian28AlphaNumC2EPKc.exit.i
  call void @llvm.trap()
  unreachable

_ZN4absl7debian26StrCatIJA2_cNSt7__cxx1112basic_stringIcSt11char_traitsIcESaIcEEEEEES8_RKNS0_8AlphaNumESB_SB_SB_SB_DpRKT_.exit: ; preds = %_ZN4absl7debian28AlphaNumC2EPKc.exit.i
  %49 = getelementptr inbounds nuw i8, ptr %6, i64 96
  store ptr %45, ptr %49, align 8, !noalias !8
  %50 = getelementptr inbounds nuw i8, ptr %6, i64 104
  store i64 %46, ptr %50, align 8, !noalias !8
  call void @_ZN4absl7debian216strings_internal9CatPiecesB5cxx11ESt16initializer_listINS0_11string_viewEE(ptr dead_on_unwind writable sret(%"class.std::__cxx11::basic_string") align 8 %0, ptr nonnull %6, i64 7)
  call void @llvm.lifetime.end.p0(i64 112, ptr nonnull %6)
  ret void
}